; Function Attrs: mustprogress nofree norecurse nosync nounwind willreturn memory(read, inaccessiblemem: none) uwtable
define noundef i64 @_ZNK8facebook5velox15ByteInputStream4sizeEv(ptr nocapture noundef nonnull readonly align 8 dereferenceable(40) %this) local_unnamed_addr #5 align 2 {
entry:
  %ranges_ = getelementptr inbounds i8, ptr %this, i64 8
  %0 = load ptr, ptr %ranges_, align 8
  %_M_finish.i = getelementptr inbounds i8, ptr %this, i64 16
  %1 = load ptr, ptr %_M_finish.i, align 8
  %cmp.i.not5 = icmp eq ptr %0, %1
  br i1 %cmp.i.not5, label %for.end, label %for.body

for.body:                                         ; preds = %entry, %for.body
  %total.07 = phi i64 [ %add, %for.body ], [ 0, %entry ]
  %__begin2.sroa.0.06 = phi ptr [ %incdec.ptr.i, %for.body ], [ %0, %entry ]
  %size = getelementptr inbounds i8, ptr %__begin2.sroa.0.06, i64 8
  %2 = load i32, ptr %size, align 8
  %conv = sext i32 %2 to i64
  %add = add i64 %total.07, %conv
  %incdec.ptr.i = getelementptr inbounds i8, ptr %__begin2.sroa.0.06, i64 16
  %cmp.i.not = icmp eq ptr %incdec.ptr.i, %1
  br i1 %cmp.i.not, label %for.end, label %for.body

for.end:                                          ; preds = %for.body, %entry
  %total.0.lcssa = phi i64 [ 0, %entry ], [ %add, %for.body ]
  ret i64 %total.0.lcssa
}